; Function Attrs: mustprogress nofree norecurse nosync nounwind willreturn memory(read, inaccessiblemem: none) uwtable
define internal zeroext i1 @pgoutput_origin_filter(ptr noundef readonly captures(none) %0, i16 noundef zeroext %1) #3 {
  %3 = getelementptr inbounds nuw i8, ptr %0, i64 264
  %4 = load ptr, ptr %3, align 8
  %5 = getelementptr inbounds nuw i8, ptr %4, i64 52
  %6 = load i8, ptr %5, align 4, !range !3, !noundef !4
  %7 = trunc nuw i8 %6 to i1
  %8 = icmp ne i16 %1, 0
  %or.cond = and i1 %8, %7
  ret i1 %or.cond
}